target datalayout = "e-m:e-p270:32:32-p271:32:32-p272:64:64-i64:64-i128:128-f80:128-n8:16:32:64-S128"
target triple = "x86_64-pc-linux-gnu"

%struct.Vec_Int_t_ = type { i32, i32, ptr }

@.str.14 = private unnamed_addr constant [2 x i8] c"\0A\00", align 1
@.str.15 = private unnamed_addr constant [2 x i8] c"0\00", align 1
@.str.16 = private unnamed_addr constant [2 x i8] c"1\00", align 1
@.str.17 = private unnamed_addr constant [2 x i8] c"-\00", align 1

; Function Attrs: inlinehint nounwind uwtable
define internal void @Vec_IntFree(ptr noundef %0) #2 {
  %2 = alloca ptr, align 8
  store ptr %0, ptr %2, align 8, !tbaa !54
  %3 = load ptr, ptr %2, align 8, !tbaa !54
  %4 = getelementptr inbounds nuw %struct.Vec_Int_t_, ptr %3, i32 0, i32 2
  %5 = load ptr, ptr %4, align 8, !tbaa !56
  %6 = icmp ne ptr %5, null
  br i1 %6, label %7, label %13

7:                                                ; preds = %1
  %8 = load ptr, ptr %2, align 8, !tbaa !54
  %9 = getelementptr inbounds nuw %struct.Vec_Int_t_, ptr %8, i32 0, i32 2
  %10 = load ptr, ptr %9, align 8, !tbaa !56
  call void @free(ptr noundef %10) #11
  %11 = load ptr, ptr %2, align 8, !tbaa !54
  %12 = getelementptr inbounds nuw %struct.Vec_Int_t_, ptr %11, i32 0, i32 2
  store ptr null, ptr %12, align 8, !tbaa !56
  br label %14

13:                                               ; preds = %1
  br label %14

14:                                               ; preds = %13, %7
  %15 = load ptr, ptr %2, align 8, !tbaa !54
  %16 = icmp ne ptr %15, null
  br i1 %16, label %17, label %19

17:                                               ; preds = %14
  %18 = load ptr, ptr %2, align 8, !tbaa !54
  call void @free(ptr noundef %18) #11
  store ptr null, ptr %2, align 8, !tbaa !54
  br label %20

19:                                               ; preds = %14
  br label %20

20:                                               ; preds = %19, %17
  ret void
}

; Function Attrs: inlinehint nounwind uwtable
define internal i32 @Abc_TtGetBit(ptr noundef %0, i32 noundef %1) #2 {
  %3 = alloca ptr, align 8
  %4 = alloca i32, align 4
  store ptr %0, ptr %3, align 8, !tbaa !28
  store i32 %1, ptr %4, align 4, !tbaa !19
  %5 = load ptr, ptr %3, align 8, !tbaa !28
  %6 = load i32, ptr %4, align 4, !tbaa !19
  %7 = ashr i32 %6, 6
  %8 = sext i32 %7 to i64
  %9 = getelementptr inbounds i64, ptr %5, i64 %8
  %10 = load i64, ptr %9, align 8, !tbaa !48
  %11 = load i32, ptr %4, align 4, !tbaa !19
  %12 = and i32 %11, 63
  %13 = zext i32 %12 to i64
  %14 = lshr i64 %10, %13
  %15 = trunc i64 %14 to i32
  %16 = and i32 %15, 1
  ret i32 %16
}

; Function Attrs: inlinehint nounwind uwtable
define internal i32 @Vec_IntEntry(ptr noundef %0, i32 noundef %1) #2 {
  %3 = alloca ptr, align 8
  %4 = alloca i32, align 4
  store ptr %0, ptr %3, align 8, !tbaa !54
  store i32 %1, ptr %4, align 4, !tbaa !19
  %5 = load ptr, ptr %3, align 8, !tbaa !54
  %6 = getelementptr inbounds nuw %struct.Vec_Int_t_, ptr %5, i32 0, i32 2
  %7 = load ptr, ptr %6, align 8, !tbaa !56
  %8 = load i32, ptr %4, align 4, !tbaa !19
  %9 = sext i32 %8 to i64
  %10 = getelementptr inbounds i32, ptr %7, i64 %9
  %11 = load i32, ptr %10, align 4, !tbaa !19
  ret i32 %11
}

; Function Attrs: inlinehint nounwind uwtable
define internal i32 @Vec_IntSize(ptr noundef %0) #2 {
  %2 = alloca ptr, align 8
  store ptr %0, ptr %2, align 8, !tbaa !54
  %3 = load ptr, ptr %2, align 8, !tbaa !54
  %4 = getelementptr inbounds nuw %struct.Vec_Int_t_, ptr %3, i32 0, i32 1
  %5 = load i32, ptr %4, align 4, !tbaa !55
  ret i32 %5
}

; Function Attrs: nounwind uwtable
define void @Res6_PrintSuppSims(ptr noundef %0, ptr noundef %1, i32 noundef %2, i32 noundef %3) #0 {
  %5 = alloca ptr, align 8
  %6 = alloca ptr, align 8
  %7 = alloca i32, align 4
  %8 = alloca i32, align 4
  %9 = alloca ptr, align 8
  %10 = alloca i32, align 4
  %11 = alloca i32, align 4
  %12 = alloca i32, align 4
  store ptr %0, ptr %5, align 8, !tbaa !54
  store ptr %1, ptr %6, align 8, !tbaa !73
  store i32 %2, ptr %7, align 4, !tbaa !19
  store i32 %3, ptr %8, align 4, !tbaa !19
  call void @llvm.lifetime.start.p0(i64 8, ptr %9) #11
  %13 = load ptr, ptr %5, align 8, !tbaa !54
  %14 = load i32, ptr %8, align 4, !tbaa !19
  %15 = call ptr @Res6_FindSupport(ptr noundef %13, i32 noundef %14)
  store ptr %15, ptr %9, align 8, !tbaa !54
  call void @llvm.lifetime.start.p0(i64 4, ptr %10) #11
  call void @llvm.lifetime.start.p0(i64 4, ptr %11) #11
  call void @llvm.lifetime.start.p0(i64 4, ptr %12) #11
  store i32 0, ptr %10, align 4, !tbaa !19
  br label %16

16:                                               ; preds = %67, %4
  %17 = load i32, ptr %10, align 4, !tbaa !19
  %18 = load ptr, ptr %9, align 8, !tbaa !54
  %19 = call i32 @Vec_IntSize(ptr noundef %18)
  %20 = icmp slt i32 %17, %19
  br i1 %20, label %21, label %25

21:                                               ; preds = %16
  %22 = load ptr, ptr %9, align 8, !tbaa !54
  %23 = load i32, ptr %10, align 4, !tbaa !19
  %24 = call i32 @Vec_IntEntry(ptr noundef %22, i32 noundef %23)
  store i32 %24, ptr %12, align 4, !tbaa !19
  br label %25

25:                                               ; preds = %21, %16
  %26 = phi i1 [ false, %16 ], [ true, %21 ]
  br i1 %26, label %27, label %70

27:                                               ; preds = %25
  store i32 0, ptr %11, align 4, !tbaa !19
  br label %28

28:                                               ; preds = %62, %27
  %29 = load i32, ptr %11, align 4, !tbaa !19
  %30 = load i32, ptr %7, align 4, !tbaa !19
  %31 = mul nsw i32 64, %30
  %32 = icmp slt i32 %29, %31
  br i1 %32, label %33, label %65

33:                                               ; preds = %28
  %34 = load ptr, ptr %6, align 8, !tbaa !73
  %35 = load i32, ptr %12, align 4, !tbaa !19
  %36 = mul nsw i32 2, %35
  %37 = add nsw i32 %36, 1
  %38 = sext i32 %37 to i64
  %39 = getelementptr inbounds ptr, ptr %34, i64 %38
  %40 = load ptr, ptr %39, align 8, !tbaa !28
  %41 = load i32, ptr %11, align 4, !tbaa !19
  %42 = call i32 @Abc_TtGetBit(ptr noundef %40, i32 noundef %41)
  %43 = icmp ne i32 %42, 0
  br i1 %43, label %44, label %46

44:                                               ; preds = %33
  %45 = call i32 (ptr, ...) @printf(ptr noundef @.str.15)
  br label %61

46:                                               ; preds = %33
  %47 = load ptr, ptr %6, align 8, !tbaa !73
  %48 = load i32, ptr %12, align 4, !tbaa !19
  %49 = mul nsw i32 2, %48
  %50 = sext i32 %49 to i64
  %51 = getelementptr inbounds ptr, ptr %47, i64 %50
  %52 = load ptr, ptr %51, align 8, !tbaa !28
  %53 = load i32, ptr %11, align 4, !tbaa !19
  %54 = call i32 @Abc_TtGetBit(ptr noundef %52, i32 noundef %53)
  %55 = icmp ne i32 %54, 0
  br i1 %55, label %56, label %58

56:                                               ; preds = %46
  %57 = call i32 (ptr, ...) @printf(ptr noundef @.str.16)
  br label %60

58:                                               ; preds = %46
  %59 = call i32 (ptr, ...) @printf(ptr noundef @.str.17)
  br label %60

60:                                               ; preds = %58, %56
  br label %61

61:                                               ; preds = %60, %44
  br label %62

62:                                               ; preds = %61
  %63 = load i32, ptr %11, align 4, !tbaa !19
  %64 = add nsw i32 %63, 1
  store i32 %64, ptr %11, align 4, !tbaa !19
  br label %28, !llvm.loop !74

65:                                               ; preds = %28
  %66 = call i32 (ptr, ...) @printf(ptr noundef @.str.14)
  br label %67

67:                                               ; preds = %65
  %68 = load i32, ptr %10, align 4, !tbaa !19
  %69 = add nsw i32 %68, 1
  store i32 %69, ptr %10, align 4, !tbaa !19
  br label %16, !llvm.loop !75

70:                                               ; preds = %25
  store i32 0, ptr %11, align 4, !tbaa !19
  br label %71

71:                                               ; preds = %127, %70
  %72 = load i32, ptr %11, align 4, !tbaa !19
  %73 = load i32, ptr %7, align 4, !tbaa !19
  %74 = mul nsw i32 64, %73
  %75 = icmp slt i32 %72, %74
  br i1 %75, label %76, label %130

76:                                               ; preds = %71
  store i32 0, ptr %10, align 4, !tbaa !19
  br label %77

77:                                               ; preds = %118, %76
  %78 = load i32, ptr %10, align 4, !tbaa !19
  %79 = load ptr, ptr %9, align 8, !tbaa !54
  %80 = call i32 @Vec_IntSize(ptr noundef %79)
  %81 = icmp slt i32 %78, %80
  br i1 %81, label %82, label %86

82:                                               ; preds = %77
  %83 = load ptr, ptr %9, align 8, !tbaa !54
  %84 = load i32, ptr %10, align 4, !tbaa !19
  %85 = call i32 @Vec_IntEntry(ptr noundef %83, i32 noundef %84)
  store i32 %85, ptr %12, align 4, !tbaa !19
  br label %86

86:                                               ; preds = %82, %77
  %87 = phi i1 [ false, %77 ], [ true, %82 ]
  br i1 %87, label %88, label %121

88:                                               ; preds = %86
  %89 = load ptr, ptr %6, align 8, !tbaa !73
  %90 = load i32, ptr %12, align 4, !tbaa !19
  %91 = mul nsw i32 2, %90
  %92 = add nsw i32 %91, 1
  %93 = sext i32 %92 to i64
  %94 = getelementptr inbounds ptr, ptr %89, i64 %93
  %95 = load ptr, ptr %94, align 8, !tbaa !28
  %96 = load i32, ptr %11, align 4, !tbaa !19
  %97 = call i32 @Abc_TtGetBit(ptr noundef %95, i32 noundef %96)
  %98 = icmp ne i32 %97, 0
  br i1 %98, label %99, label %101

99:                                               ; preds = %88
  %100 = call i32 (ptr, ...) @printf(ptr noundef @.str.15)
  br label %117

101:                                              ; preds = %88
  %102 = load ptr, ptr %6, align 8, !tbaa !73
  %103 = load i32, ptr %12, align 4, !tbaa !19
  %104 = mul nsw i32 2, %103
  %105 = add nsw i32 %104, 0
  %106 = sext i32 %105 to i64
  %107 = getelementptr inbounds ptr, ptr %102, i64 %106
  %108 = load ptr, ptr %107, align 8, !tbaa !28
  %109 = load i32, ptr %11, align 4, !tbaa !19
  %110 = call i32 @Abc_TtGetBit(ptr noundef %108, i32 noundef %109)
  %111 = icmp ne i32 %110, 0
  br i1 %111, label %112, label %114

112:                                              ; preds = %101
  %113 = call i32 (ptr, ...) @printf(ptr noundef @.str.16)
  br label %116

114:                                              ; preds = %101
  %115 = call i32 (ptr, ...) @printf(ptr noundef @.str.17)
  br label %116

116:                                              ; preds = %114, %112
  br label %117

117:                                              ; preds = %116, %99
  br label %118

118:                                              ; preds = %117
  %119 = load i32, ptr %10, align 4, !tbaa !19
  %120 = add nsw i32 %119, 1
  store i32 %120, ptr %10, align 4, !tbaa !19
  br label %77, !llvm.loop !76

121:                                              ; preds = %86
  %122 = call i32 (ptr, ...) @printf(ptr noundef @.str.14)
  %123 = load i32, ptr %11, align 4, !tbaa !19
  %124 = icmp eq i32 %123, 9
  br i1 %124, label %125, label %126

125:                                              ; preds = %121
  br label %130

126:                                              ; preds = %121
  br label %127

127:                                              ; preds = %126
  %128 = load i32, ptr %11, align 4, !tbaa !19
  %129 = add nsw i32 %128, 1
  store i32 %129, ptr %11, align 4, !tbaa !19
  br label %71, !llvm.loop !77

130:                                              ; preds = %125, %71
  %131 = load ptr, ptr %9, align 8, !tbaa !54
  call void @Vec_IntFree(ptr noundef %131)
  call void @llvm.lifetime.end.p0(i64 4, ptr %12) #11
  call void @llvm.lifetime.end.p0(i64 4, ptr %11) #11
  call void @llvm.lifetime.end.p0(i64 4, ptr %10) #11
  call void @llvm.lifetime.end.p0(i64 8, ptr %9) #11
  ret void
}