; Function Attrs: nounwind uwtable
define void @Res6_PrintSuppSims(ptr noundef readonly captures(none) %0, ptr noundef readonly captures(none) %1, i32 noundef %2, i32 noundef %3) local_unnamed_addr #0 {
  %5 = tail call ptr @Res6_FindSupport(ptr noundef %0, i32 noundef %3)
  %6 = getelementptr i8, ptr %5, i64 4
  %.val45 = load i32, ptr %6, align 4, !tbaa !25
  %7 = icmp sgt i32 %.val45, 0
  br i1 %7, label %.lr.ph51, label %.critedge.preheader.thread

.lr.ph51:                                         ; preds = %4
  %8 = getelementptr i8, ptr %5, i64 8
  %.val47 = load ptr, ptr %8, align 8, !tbaa !29
  %9 = shl i32 %2, 6
  %10 = icmp sgt i32 %2, 0
  br i1 %10, label %.lr.ph.us.preheader, label %.lr.ph51.split

.lr.ph.us.preheader:                              ; preds = %.lr.ph51
  %smax = tail call i32 @llvm.smax.i32(i32 %9, i32 1)
  %wide.trip.count = zext nneg i32 %.val45 to i64
  br label %.lr.ph.us

.lr.ph.us:                                        ; preds = %.lr.ph.us.preheader, %._crit_edge.us
  %indvars.iv = phi i64 [ 0, %.lr.ph.us.preheader ], [ %indvars.iv.next, %._crit_edge.us ]
  %11 = getelementptr inbounds nuw i32, ptr %.val47, i64 %indvars.iv
  %12 = load i32, ptr %11, align 4, !tbaa !3
  %13 = shl nsw i32 %12, 1
  %14 = or disjoint i32 %13, 1
  %15 = sext i32 %14 to i64
  %16 = getelementptr inbounds ptr, ptr %1, i64 %15
  %17 = sext i32 %13 to i64
  %18 = getelementptr inbounds ptr, ptr %1, i64 %17
  br label %19

19:                                               ; preds = %.lr.ph.us, %34
  %.048.us = phi i32 [ 0, %.lr.ph.us ], [ %35, %34 ]
  %20 = load ptr, ptr %16, align 8, !tbaa !41
  %21 = lshr i32 %.048.us, 6
  %22 = zext nneg i32 %21 to i64
  %23 = getelementptr inbounds nuw i64, ptr %20, i64 %22
  %24 = load i64, ptr %23, align 8, !tbaa !42
  %25 = and i32 %.048.us, 63
  %26 = zext nneg i32 %25 to i64
  %27 = shl nuw i64 1, %26
  %28 = and i64 %24, %27
  %.not40.us = icmp eq i64 %28, 0
  br i1 %.not40.us, label %29, label %34

29:                                               ; preds = %19
  %30 = load ptr, ptr %18, align 8, !tbaa !41
  %31 = getelementptr inbounds nuw i64, ptr %30, i64 %22
  %32 = load i64, ptr %31, align 8, !tbaa !42
  %33 = and i64 %32, %27
  %.not41.us = icmp eq i64 %33, 0
  %. = select i1 %.not41.us, i32 45, i32 49
  br label %34

34:                                               ; preds = %29, %19
  %.sink = phi i32 [ 48, %19 ], [ %., %29 ]
  %putchar42.us = tail call i32 @putchar(i32 %.sink)
  %35 = add nuw nsw i32 %.048.us, 1
  %exitcond58.not = icmp eq i32 %35, %smax
  br i1 %exitcond58.not, label %._crit_edge.us, label %19, !llvm.loop !71

._crit_edge.us:                                   ; preds = %34
  %putchar39.us = tail call i32 @putchar(i32 10)
  %indvars.iv.next = add nuw nsw i64 %indvars.iv, 1
  %exitcond60.not = icmp eq i64 %indvars.iv.next, %wide.trip.count
  br i1 %exitcond60.not, label %.critedge.preheader, label %.lr.ph.us, !llvm.loop !72

.critedge.preheader:                              ; preds = %.lr.ph51.split, %._crit_edge.us
  %36 = icmp sgt i32 %2, 0
  br i1 %36, label %.preheader.lr.ph.split.us, label %.critedge2._crit_edge

.critedge.preheader.thread:                       ; preds = %4
  %.pre = shl nsw i32 %2, 6
  %37 = icmp sgt i32 %2, 0
  br i1 %37, label %.preheader, label %.critedge2._crit_edge

.preheader.lr.ph.split.us:                        ; preds = %.critedge.preheader
  %38 = getelementptr i8, ptr %5, i64 8
  %.val46.us = load ptr, ptr %38, align 8, !tbaa !29
  %39 = sext i32 %9 to i64
  %wide.trip.count64 = zext nneg i32 %.val45 to i64
  br label %.preheader.us

.preheader.us:                                    ; preds = %..critedge2_crit_edge.us, %.preheader.lr.ph.split.us
  %indvars.iv66 = phi i64 [ %indvars.iv.next67, %..critedge2_crit_edge.us ], [ 0, %.preheader.lr.ph.split.us ]
  %40 = lshr i64 %indvars.iv66, 6
  %41 = and i64 %40, 67108863
  %42 = shl nuw i64 1, %indvars.iv66
  br label %43

43:                                               ; preds = %.preheader.us, %61
  %indvars.iv61 = phi i64 [ 0, %.preheader.us ], [ %indvars.iv.next62, %61 ]
  %44 = getelementptr inbounds nuw i32, ptr %.val46.us, i64 %indvars.iv61
  %45 = load i32, ptr %44, align 4, !tbaa !3
  %46 = shl nsw i32 %45, 1
  %47 = or disjoint i32 %46, 1
  %48 = sext i32 %47 to i64
  %49 = getelementptr inbounds ptr, ptr %1, i64 %48
  %50 = load ptr, ptr %49, align 8, !tbaa !41
  %51 = getelementptr inbounds nuw i64, ptr %50, i64 %41
  %52 = load i64, ptr %51, align 8, !tbaa !42
  %53 = and i64 %52, %42
  %.not.us = icmp eq i64 %53, 0
  br i1 %.not.us, label %54, label %61

54:                                               ; preds = %43
  %55 = sext i32 %46 to i64
  %56 = getelementptr inbounds ptr, ptr %1, i64 %55
  %57 = load ptr, ptr %56, align 8, !tbaa !41
  %58 = getelementptr inbounds nuw i64, ptr %57, i64 %41
  %59 = load i64, ptr %58, align 8, !tbaa !42
  %60 = and i64 %59, %42
  %.not35.us = icmp eq i64 %60, 0
  %.76 = select i1 %.not35.us, i32 45, i32 49
  br label %61

61:                                               ; preds = %54, %43
  %.sink75 = phi i32 [ 48, %43 ], [ %.76, %54 ]
  %putchar36.us = tail call i32 @putchar(i32 %.sink75)
  %indvars.iv.next62 = add nuw nsw i64 %indvars.iv61, 1
  %exitcond65.not = icmp eq i64 %indvars.iv.next62, %wide.trip.count64
  br i1 %exitcond65.not, label %..critedge2_crit_edge.us, label %43, !llvm.loop !73

..critedge2_crit_edge.us:                         ; preds = %61
  %putchar.us = tail call i32 @putchar(i32 10)
  %62 = icmp ne i64 %indvars.iv66, 9
  %indvars.iv.next67 = add nuw nsw i64 %indvars.iv66, 1
  %63 = icmp slt i64 %indvars.iv.next67, %39
  %or.cond = select i1 %62, i1 %63, i1 false
  br i1 %or.cond, label %.preheader.us, label %.critedge2._crit_edge, !llvm.loop !74

.lr.ph51.split:                                   ; preds = %.lr.ph51, %.lr.ph51.split
  %.03349 = phi i32 [ %64, %.lr.ph51.split ], [ 0, %.lr.ph51 ]
  %putchar39 = tail call i32 @putchar(i32 10)
  %64 = add nuw nsw i32 %.03349, 1
  %exitcond.not = icmp eq i32 %64, %.val45
  br i1 %exitcond.not, label %.critedge.preheader, label %.lr.ph51.split, !llvm.loop !72

.preheader:                                       ; preds = %.critedge.preheader.thread, %.preheader
  %.153 = phi i32 [ %66, %.preheader ], [ 0, %.critedge.preheader.thread ]
  %putchar = tail call i32 @putchar(i32 10)
  %65 = icmp ne i32 %.153, 9
  %66 = add nuw nsw i32 %.153, 1
  %67 = icmp slt i32 %66, %.pre
  %or.cond55 = select i1 %65, i1 %67, i1 false
  br i1 %or.cond55, label %.preheader, label %.critedge2._crit_edge, !llvm.loop !74

.critedge2._crit_edge:                            ; preds = %.preheader, %..critedge2_crit_edge.us, %.critedge.preheader.thread, %.critedge.preheader
  %68 = getelementptr inbounds nuw i8, ptr %5, i64 8
  %69 = load ptr, ptr %68, align 8, !tbaa !29
  %.not.i = icmp eq ptr %69, null
  br i1 %.not.i, label %Vec_IntFree.exit, label %70

70:                                               ; preds = %.critedge2._crit_edge
  tail call void @free(ptr noundef nonnull %69) #21
  br label %Vec_IntFree.exit

Vec_IntFree.exit:                                 ; preds = %.critedge2._crit_edge, %70
  tail call void @free(ptr noundef nonnull %5) #21
  ret void
}